; Function Attrs: mustprogress uwtable
define hidden void @_ZN2cv9BitStream8putShortEi(ptr noundef nonnull align 8 dereferenceable(569) %0, i32 noundef %1) local_unnamed_addr #4 align 2 {
  %3 = trunc i32 %1 to i8
  %4 = getelementptr inbounds nuw i8, ptr %0, i64 552
  %5 = load ptr, ptr %4, align 8, !tbaa !133
  store i8 %3, ptr %5, align 1, !tbaa !27
  %6 = lshr i32 %1, 8
  %7 = trunc i32 %6 to i8
  %8 = load ptr, ptr %4, align 8, !tbaa !133
  %9 = getelementptr inbounds nuw i8, ptr %8, i64 1
  store i8 %7, ptr %9, align 1, !tbaa !27
  %10 = load ptr, ptr %4, align 8, !tbaa !133
  %11 = getelementptr inbounds nuw i8, ptr %10, i64 2
  store ptr %11, ptr %4, align 8, !tbaa !133
  %12 = getelementptr inbounds nuw i8, ptr %0, i64 544
  %13 = load ptr, ptr %12, align 8, !tbaa !130
  %.not = icmp ult ptr %11, %13
  br i1 %.not, label %27, label %14

14:                                               ; preds = %2
  %15 = getelementptr inbounds nuw i8, ptr %0, i64 536
  %16 = load ptr, ptr %15, align 8, !tbaa !123
  %17 = ptrtoint ptr %11 to i64
  %18 = ptrtoint ptr %16 to i64
  %19 = sub i64 %17, %18
  %20 = icmp sgt i64 %19, 0
  br i1 %20, label %21, label %_ZN2cv9BitStream10writeBlockEv.exit

21:                                               ; preds = %14
  %22 = tail call noundef nonnull align 8 dereferenceable(8) ptr @_ZNSo5writeEPKcl(ptr noundef nonnull align 8 dereferenceable(569) %0, ptr noundef %16, i64 noundef %19)
  %.pre.i = load ptr, ptr %15, align 8, !tbaa !123
  br label %_ZN2cv9BitStream10writeBlockEv.exit

_ZN2cv9BitStream10writeBlockEv.exit:              ; preds = %14, %21
  %23 = phi ptr [ %.pre.i, %21 ], [ %16, %14 ]
  %24 = getelementptr inbounds nuw i8, ptr %0, i64 560
  %25 = load i64, ptr %24, align 8, !tbaa !134
  %26 = add i64 %25, %19
  store i64 %26, ptr %24, align 8, !tbaa !134
  store ptr %23, ptr %4, align 8, !tbaa !133
  br label %27

27:                                               ; preds = %_ZN2cv9BitStream10writeBlockEv.exit, %2
  ret void
}